(dp1
Vdiamond
p2
(dp3
S'knots'
p4
(lp5
F0
aF1
aF2
aF3
aF4
aF5
aF6
aF7
aF8
aF9
aF10
aF11
aF12
aF13
asS'cvs'
p6
(lp7
(F-2.2204460492503131e-16
F-1
F0
tp8
a(F-1
F0
F-1.1102230246251565e-16
tp9
a(F-2.2204460492503136e-16
F-2.2204460492503131e-16
F1
tp10
a(F1
F0
F2.2204460492503131e-16
tp11
a(F2.2204460492503136e-16
F2.2204460492503131e-16
F-1
tp12
a(F-2.2204460492503131e-16
F-1
F0
tp13
a(F0
F-4.9303806576313238e-32
F1
tp14
a(F2.2204460492503131e-16
F1
F0
tp15
a(F0
F4.9303806576313238e-32
F-1
tp16
a(F-2.2204460492503131e-16
F-1
F0
tp17
a(F1
F-2.2204460492503131e-16
F2.2204460492503131e-16
tp18
a(F2.2204460492503131e-16
F1
F0
tp19
a(F-1
F2.2204460492503131e-16
F-2.2204460492503131e-16
tp20
a(F0
F0
F-1
tp21
asS'form'
p22
S'open'
p23
sS'spans'
p24
I13
sS'degree'
p25
I1
ssVsuperMover
p26
(dp27
g4
(lp28
F0
aF1
aF2
aF3
aF4
aF5
aF6
aF7
aF8
aF9
aF10
aF11
aF12
aF13
aF14
aF15
aF16
aF17
aF18
aF19
aF20
aF21
aF22
aF23
aF24
asg6
(lp29
(F1
F0
F-1
tp30
a(F3
F0
F-1
tp31
a(F3
F0
F-2
tp32
a(F5
F0
F0
tp33
a(F3
F0
F2
tp34
a(F3
F0
F1
tp35
a(F1
F0
F1
tp36
a(F1
F0
F3
tp37
a(F2
F0
F3
tp38
a(F0
F0
F5
tp39
a(F-2
F0
F3
tp40
a(F-1
F0
F3
tp41
a(F-1
F0
F1
tp42
a(F-3
F0
F1
tp43
a(F-3
F0
F2
tp44
a(F-5
F0
F0
tp45
a(F-3
F0
F-2
tp46
a(F-3
F0
F-1
tp47
a(F-1
F0
F-1
tp48
a(F-1
F0
F-3
tp49
a(F-2
F0
F-3
tp50
a(F0
F0
F-5
tp51
a(F2
F0
F-3
tp52
a(F1
F0
F-3
tp53
a(F1
F0
F-1
tp54
asg22
g23
sg24
I24
sg25
I1
ssVroundedSuperMover
p55
(dp56
g4
(lp57
F0
aF1
aF2
aF3
aF4
aF5
aF6
aF7
aF8
aF9
aF10
aF11
aF12
aF13
aF14
aF15
aF16
aF17
aF18
aF19
aF20
aF21
aF22
aF23
aF24
asg6
(lp58
(F1
F1.4564596342682521
F-1
tp59
a(F3
F1.0251397903473343
F-1
tp60
a(F3
F0.85822149291689365
F-2
tp61
a(F5
F0
F0
tp62
a(F3
F0.85822149291689365
F2
tp63
a(F3
F1.0251397903473343
F1
tp64
a(F1
F1.4564596342682521
F1
tp65
a(F1
F1.0251397903473343
F3
tp66
a(F2
F0.85822149291689365
F3
tp67
a(F0
F0
F5
tp68
a(F-2
F0.85822149291689365
F3
tp69
a(F-1
F1.0251397903473343
F3
tp70
a(F-1
F1.4564596342682521
F1
tp71
a(F-3
F1.0251397903473343
F1
tp72
a(F-3
F0.85822149291689365
F2
tp73
a(F-5
F0
F0
tp74
a(F-3
F0.85822149291689365
F-2
tp75
a(F-3
F1.0251397903473343
F-1
tp76
a(F-1
F1.4564596342682521
F-1
tp77
a(F-1
F1.0251397903473343
F-3
tp78
a(F-2
F0.85822149291689365
F-3
tp79
a(F0
F0
F-5
tp80
a(F2
F0.85822149291689365
F-3
tp81
a(F1
F1.0251397903473343
F-3
tp82
a(F1
F1.4564596342682521
F-1
tp83
asg22
g23
sg24
I24
sg25
I1
ssVcube
p84
(dp85
g4
(lp86
F0
aF1
aF2
asg6
(lp87
(F1
F-0
F-0.98372473513618441
tp88
a(F1
F1.5
F-0.98215003545658952
tp89
a(F1
F-0
F-0.98372473513618441
tp90
asg22
S'periodic'
p91
sg24
I2
sg25
I1
ssVsquare
p92
(dp93
g4
(lp94
F0
aF1
aF2
aF3
aF4
asg6
(lp95
(F-1
F0
F1
tp96
a(F1
F0
F1
tp97
a(F1
F0
F-1
tp98
a(F-1
F0
F-1
tp99
a(F-1
F0
F1
tp100
asg22
g23
sg24
I4
sg25
I1
ssVarrow
p101
(dp102
g4
(lp103
F0
aF1
aF2
aF3
aF4
aF5
aF6
aF7
asg6
(lp104
(F-1
F0
F1
tp105
a(F-1
F0
F0
tp106
a(F-2
F0
F0
tp107
a(F0
F0
F-3
tp108
a(F2
F0
F0
tp109
a(F1
F0
F0
tp110
a(F1
F0
F1
tp111
a(F-1
F0
F1
tp112
asg22
g23
sg24
I7
sg25
I1
ssVcircle
p113
(dp114
g4
(lp115
F-2
aF-1
aF0
aF1
aF2
aF3
aF4
aF5
aF6
aF7
aF8
aF9
aF10
asg6
(lp116
(F0.78361162489122449
F4.7982373409884731e-17
F-0.7836116248912246
tp117
a(F6.7857323231109122e-17
F6.7857323231109122e-17
F-1.1081941875543877
tp118
a(F-0.78361162489122449
F4.7982373409884719e-17
F-0.78361162489122438
tp119
a(F-1.1081941875543881
F3.5177356190060272e-33
F-5.7448982375248304e-17
tp120
a(F-0.78361162489122449
F-4.7982373409884725e-17
F0.78361162489122449
tp121
a(F-1.1100856969603225e-16
F-6.7857323231109171e-17
F1.1081941875543884
tp122
a(F0.78361162489122449
F-4.7982373409884719e-17
F0.78361162489122438
tp123
a(F1.1081941875543881
F-9.2536792101100989e-33
F1.511240500779959e-16
tp124
a(F0.78361162489122449
F4.7982373409884731e-17
F-0.7836116248912246
tp125
a(F6.7857323231109122e-17
F6.7857323231109122e-17
F-1.1081941875543877
tp126
a(F-0.78361162489122449
F4.7982373409884719e-17
F-0.78361162489122438
tp127
asg22
g91
sg24
I8
sg25
I3
ssVcircleSuperMover
p128
(dp129
S'knots'
p130
(lp131
F0
aF1
aF2
aF3
aF4
aF5
aF6
aF7
aF8
aF9
aF10
aF11
aF12
aF13
aF14
aF15
aF16
aF17
aF18
aF19
aF20
aF21
aF22
aF23
aF24
aF25
aF26
aF27
aF28
aF29
aF30
aF31
aF32
aF33
aF34
aF35
aF36
aF37
aF38
aF39
aF40
aF41
aF42
aF43
aF44
aF45
aF46
aF47
aF48
aF49
aF50
aF51
aF52
aF53
aF54
aF55
aF56
asS'spans'
p132
I56
sS'form'
p133
S'open'
p134
sS'degree'
p135
I1
sS'cvs'
p136
(lp137
(F0
F0
F-72.600000000000009
tp138
a(F24.75
F0
F-47.850000000000001
tp139
a(F11.550000000000001
F0
F-47.850000000000001
tp140
a(F11.550000000000001
F0
F-44.550000000000004
tp141
a(F17.82
F0
F-42.899999999999999
tp142
a(F23.100000000000001
F0
F-40.425000000000004
tp143
a(F28.380000000000003
F0
F-37.125
tp144
a(F33
F0
F-33
tp145
a(F37.125
F0
F-28.380000000000003
tp146
a(F40.425000000000004
F0
F-23.100000000000001
tp147
a(F42.899999999999999
F0
F-17.82
tp148
a(F44.550000000000004
F0
F-11.550000000000001
tp149
a(F47.850000000000001
F0
F-11.550000000000001
tp150
a(F47.850000000000001
F0
F-24.75
tp151
a(F72.600000000000009
F0
F0
tp152
a(F47.850000000000001
F0
F24.75
tp153
a(F47.850000000000001
F0
F11.550000000000001
tp154
a(F44.550000000000004
F0
F11.550000000000001
tp155
a(F42.899999999999999
F0
F17.82
tp156
a(F40.425000000000004
F0
F23.100000000000001
tp157
a(F37.125
F0
F28.380000000000003
tp158
a(F33
F0
F33
tp159
a(F28.380000000000003
F0
F37.125
tp160
a(F23.100000000000001
F0
F40.425000000000004
tp161
a(F17.82
F0
F42.899999999999999
tp162
a(F11.550000000000001
F0
F44.550000000000004
tp163
a(F11.550000000000001
F0
F47.850000000000001
tp164
a(F24.75
F0
F47.850000000000001
tp165
a(F0
F0
F72.600000000000009
tp166
a(F-24.75
F0
F47.850000000000001
tp167
a(F-11.550000000000001
F0
F47.850000000000001
tp168
a(F-11.550000000000001
F0
F44.550000000000004
tp169
a(F-17.82
F0
F42.899999999999999
tp170
a(F-23.100000000000001
F0
F40.425000000000004
tp171
a(F-28.380000000000003
F0
F37.125
tp172
a(F-33
F0
F33
tp173
a(F-37.125
F0
F28.380000000000003
tp174
a(F-40.425000000000004
F0
F23.100000000000001
tp175
a(F-42.899999999999999
F0
F17.82
tp176
a(F-44.550000000000004
F0
F11.550000000000001
tp177
a(F-47.850000000000001
F0
F11.550000000000001
tp178
a(F-47.850000000000001
F0
F24.75
tp179
a(F-72.600000000000009
F0
F0
tp180
a(F-47.850000000000001
F0
F-24.75
tp181
a(F-47.850000000000001
F0
F-11.550000000000001
tp182
a(F-44.550000000000004
F0
F-11.550000000000001
tp183
a(F-42.899999999999999
F0
F-17.82
tp184
a(F-40.425000000000004
F0
F-23.100000000000001
tp185
a(F-37.125
F0
F-28.380000000000003
tp186
a(F-33
F0
F-33
tp187
a(F-28.380000000000003
F0
F-37.125
tp188
a(F-23.100000000000001
F0
F-40.425000000000004
tp189
a(F-17.82
F0
F-42.899999999999999
tp190
a(F-11.550000000000001
F0
F-44.550000000000004
tp191
a(F-11.550000000000001
F0
F-47.850000000000001
tp192
a(F-24.75
F0
F-47.850000000000001
tp193
a(F0
F0
F-72.600000000000009
tp194
ass.
