(dp1
Vcube
p2
(dp3
S'knots'
p4
(lp5
F0
aF1
aF2
asS'spans'
p6
I2
sS'form'
p7
S'periodic'
p8
sS'degree'
p9
I1
sS'cvs'
p10
(lp11
(F1
F-0
F-0.98372473513618441
tp12
a(F1
F1.5
F-0.98215003545658952
tp13
a(F1
F-0
F-0.98372473513618441
tp14
assVdiamond
p15
(dp16
g4
(lp17
F0
aF1
aF2
aF3
aF4
aF5
aF6
aF7
aF8
aF9
aF10
aF11
aF12
aF13
asg6
I13
sg7
S'open'
p18
sg9
I1
sg10
(lp19
(F-2.2204460492503131e-16
F-1
F0
tp20
a(F-1
F0
F-1.1102230246251565e-16
tp21
a(F-2.2204460492503136e-16
F-2.2204460492503131e-16
F1
tp22
a(F1
F0
F2.2204460492503131e-16
tp23
a(F2.2204460492503136e-16
F2.2204460492503131e-16
F-1
tp24
a(F-2.2204460492503131e-16
F-1
F0
tp25
a(F0
F-4.9303806576313238e-32
F1
tp26
a(F2.2204460492503131e-16
F1
F0
tp27
a(F0
F4.9303806576313238e-32
F-1
tp28
a(F-2.2204460492503131e-16
F-1
F0
tp29
a(F1
F-2.2204460492503131e-16
F2.2204460492503131e-16
tp30
a(F2.2204460492503131e-16
F1
F0
tp31
a(F-1
F2.2204460492503131e-16
F-2.2204460492503131e-16
tp32
a(F0
F0
F-1
tp33
assVsuperMover
p34
(dp35
g4
(lp36
F0
aF1
aF2
aF3
aF4
aF5
aF6
aF7
aF8
aF9
aF10
aF11
aF12
aF13
aF14
aF15
aF16
aF17
aF18
aF19
aF20
aF21
aF22
aF23
aF24
asg6
I24
sg7
g18
sg9
I1
sg10
(lp37
(F1
F0
F-1
tp38
a(F3
F0
F-1
tp39
a(F3
F0
F-2
tp40
a(F5
F0
F0
tp41
a(F3
F0
F2
tp42
a(F3
F0
F1
tp43
a(F1
F0
F1
tp44
a(F1
F0
F3
tp45
a(F2
F0
F3
tp46
a(F0
F0
F5
tp47
a(F-2
F0
F3
tp48
a(F-1
F0
F3
tp49
a(F-1
F0
F1
tp50
a(F-3
F0
F1
tp51
a(F-3
F0
F2
tp52
a(F-5
F0
F0
tp53
a(F-3
F0
F-2
tp54
a(F-3
F0
F-1
tp55
a(F-1
F0
F-1
tp56
a(F-1
F0
F-3
tp57
a(F-2
F0
F-3
tp58
a(F0
F0
F-5
tp59
a(F2
F0
F-3
tp60
a(F1
F0
F-3
tp61
a(F1
F0
F-1
tp62
assVroundedSuperMover
p63
(dp64
g4
(lp65
F0
aF1
aF2
aF3
aF4
aF5
aF6
aF7
aF8
aF9
aF10
aF11
aF12
aF13
aF14
aF15
aF16
aF17
aF18
aF19
aF20
aF21
aF22
aF23
aF24
asg6
I24
sg7
g18
sg9
I1
sg10
(lp66
(F1
F1.4564596342682521
F-1
tp67
a(F3
F1.0251397903473343
F-1
tp68
a(F3
F0.85822149291689365
F-2
tp69
a(F5
F0
F0
tp70
a(F3
F0.85822149291689365
F2
tp71
a(F3
F1.0251397903473343
F1
tp72
a(F1
F1.4564596342682521
F1
tp73
a(F1
F1.0251397903473343
F3
tp74
a(F2
F0.85822149291689365
F3
tp75
a(F0
F0
F5
tp76
a(F-2
F0.85822149291689365
F3
tp77
a(F-1
F1.0251397903473343
F3
tp78
a(F-1
F1.4564596342682521
F1
tp79
a(F-3
F1.0251397903473343
F1
tp80
a(F-3
F0.85822149291689365
F2
tp81
a(F-5
F0
F0
tp82
a(F-3
F0.85822149291689365
F-2
tp83
a(F-3
F1.0251397903473343
F-1
tp84
a(F-1
F1.4564596342682521
F-1
tp85
a(F-1
F1.0251397903473343
F-3
tp86
a(F-2
F0.85822149291689365
F-3
tp87
a(F0
F0
F-5
tp88
a(F2
F0.85822149291689365
F-3
tp89
a(F1
F1.0251397903473343
F-3
tp90
a(F1
F1.4564596342682521
F-1
tp91
assVsquare
p92
(dp93
g4
(lp94
F0
aF1
aF2
aF3
aF4
asg6
I4
sg7
g18
sg9
I1
sg10
(lp95
(F-1
F0
F1
tp96
a(F1
F0
F1
tp97
a(F1
F0
F-1
tp98
a(F-1
F0
F-1
tp99
a(F-1
F0
F1
tp100
assVarrow
p101
(dp102
g4
(lp103
F0
aF1
aF2
aF3
aF4
aF5
aF6
aF7
asg6
I7
sg7
g18
sg9
I1
sg10
(lp104
(F-1
F0
F1
tp105
a(F-1
F0
F0
tp106
a(F-2
F0
F0
tp107
a(F0
F0
F-3
tp108
a(F2
F0
F0
tp109
a(F1
F0
F0
tp110
a(F1
F0
F1
tp111
a(F-1
F0
F1
tp112
assVcircle
p113
(dp114
g4
(lp115
F-2
aF-1
aF0
aF1
aF2
aF3
aF4
aF5
aF6
aF7
aF8
aF9
aF10
asg6
I8
sg7
g8
sg9
I3
sg10
(lp116
(F0.78361162489122449
F4.7982373409884731e-17
F-0.7836116248912246
tp117
a(F6.7857323231109122e-17
F6.7857323231109122e-17
F-1.1081941875543877
tp118
a(F-0.78361162489122449
F4.7982373409884719e-17
F-0.78361162489122438
tp119
a(F-1.1081941875543881
F3.5177356190060272e-33
F-5.7448982375248304e-17
tp120
a(F-0.78361162489122449
F-4.7982373409884725e-17
F0.78361162489122449
tp121
a(F-1.1100856969603225e-16
F-6.7857323231109171e-17
F1.1081941875543884
tp122
a(F0.78361162489122449
F-4.7982373409884719e-17
F0.78361162489122438
tp123
a(F1.1081941875543881
F-9.2536792101100989e-33
F1.511240500779959e-16
tp124
a(F0.78361162489122449
F4.7982373409884731e-17
F-0.7836116248912246
tp125
a(F6.7857323231109122e-17
F6.7857323231109122e-17
F-1.1081941875543877
tp126
a(F-0.78361162489122449
F4.7982373409884719e-17
F-0.78361162489122438
tp127
ass.